target datalayout = "e-m:e-p270:32:32-p271:32:32-p272:64:64-i64:64-i128:128-f80:128-n8:16:32:64-S128"
target triple = "x86_64-unknown-linux-gnu"

%struct.VFIODevice = type { %struct.anon, %struct.anon.0, %struct.anon.1, ptr, ptr, ptr, ptr, ptr, i32, i32, i8, i8, i8, i8, i32, ptr, i32, i32, i32, ptr, ptr, i32, i8, i8 }
%struct.anon = type { ptr, ptr }
%struct.anon.0 = type { ptr, ptr }
%struct.anon.1 = type { ptr, ptr }
%struct.VFIOMigration = type { ptr, ptr, %struct.Notifier, i32, i32, ptr, i64, i64, i64, i64, i8 }
%struct.Notifier = type { ptr, %struct.anon.2 }
%struct.anon.2 = type { ptr, ptr }
%struct.timeval = type { i64, i64 }

@trace_events_enabled_count = external global i32, align 4
@message_with_timestamp = external global i8, align 1
@qemu_loglevel = external global i32, align 4
@_TRACE_VFIO_SAVE_ITERATE_DSTATE = external global i16, align 2
@.str.42 = private unnamed_addr constant [90 x i8] c"%d@%zu.%06zu:vfio_save_iterate  (%s) precopy initial size 0x%lx precopy dirty size 0x%lx\0A\00", align 1
@.str.43 = private unnamed_addr constant [77 x i8] c"vfio_save_iterate  (%s) precopy initial size 0x%lx precopy dirty size 0x%lx\0A\00", align 1

; Function Attrs: nounwind sspstrong uwtable
define internal zeroext i1 @qemu_loglevel_mask(i32 noundef %mask) #0 {
entry:
  %mask.addr = alloca i32, align 4
  store i32 %mask, ptr %mask.addr, align 4
  %0 = load i32, ptr @qemu_loglevel, align 4
  %1 = load i32, ptr %mask.addr, align 4
  %and = and i32 %0, %1
  %cmp = icmp ne i32 %and, 0
  ret i1 %cmp
}

; Function Attrs: nounwind sspstrong uwtable
define internal void @_nocheck__trace_vfio_save_iterate(ptr noundef %name, i64 noundef %precopy_init_size, i64 noundef %precopy_dirty_size) #0 {
entry:
  %name.addr = alloca ptr, align 8
  %precopy_init_size.addr = alloca i64, align 8
  %precopy_dirty_size.addr = alloca i64, align 8
  %_now = alloca %struct.timeval, align 8
  store ptr %name, ptr %name.addr, align 8
  store i64 %precopy_init_size, ptr %precopy_init_size.addr, align 8
  store i64 %precopy_dirty_size, ptr %precopy_dirty_size.addr, align 8
  %0 = load i32, ptr @trace_events_enabled_count, align 4
  %tobool = icmp ne i32 %0, 0
  %lnot = xor i1 %tobool, true
  %lnot1 = xor i1 %lnot, true
  %lnot.ext = zext i1 %lnot1 to i32
  %conv = sext i32 %lnot.ext to i64
  %tobool2 = icmp ne i64 %conv, 0
  br i1 %tobool2, label %land.lhs.true, label %if.end11

land.lhs.true:                                    ; preds = %entry
  %1 = load i16, ptr @_TRACE_VFIO_SAVE_ITERATE_DSTATE, align 2
  %conv3 = zext i16 %1 to i32
  %tobool4 = icmp ne i32 %conv3, 0
  br i1 %tobool4, label %land.lhs.true5, label %if.end11

land.lhs.true5:                                   ; preds = %land.lhs.true
  %call = call zeroext i1 @qemu_loglevel_mask(i32 noundef 32768)
  br i1 %call, label %if.then, label %if.end11

if.then:                                          ; preds = %land.lhs.true5
  %2 = load i8, ptr @message_with_timestamp, align 1
  %tobool7 = trunc i8 %2 to i1
  br i1 %tobool7, label %if.then8, label %if.else

if.then8:                                         ; preds = %if.then
  %call9 = call i32 @gettimeofday(ptr noundef %_now, ptr noundef null) #9
  %call10 = call i32 @qemu_get_thread_id()
  %tv_sec = getelementptr inbounds %struct.timeval, ptr %_now, i32 0, i32 0
  %3 = load i64, ptr %tv_sec, align 8
  %tv_usec = getelementptr inbounds %struct.timeval, ptr %_now, i32 0, i32 1
  %4 = load i64, ptr %tv_usec, align 8
  %5 = load ptr, ptr %name.addr, align 8
  %6 = load i64, ptr %precopy_init_size.addr, align 8
  %7 = load i64, ptr %precopy_dirty_size.addr, align 8
  call void (ptr, ...) @qemu_log(ptr noundef @.str.42, i32 noundef %call10, i64 noundef %3, i64 noundef %4, ptr noundef %5, i64 noundef %6, i64 noundef %7)
  br label %if.end

if.else:                                          ; preds = %if.then
  %8 = load ptr, ptr %name.addr, align 8
  %9 = load i64, ptr %precopy_init_size.addr, align 8
  %10 = load i64, ptr %precopy_dirty_size.addr, align 8
  call void (ptr, ...) @qemu_log(ptr noundef @.str.43, ptr noundef %8, i64 noundef %9, i64 noundef %10)
  br label %if.end

if.end:                                           ; preds = %if.else, %if.then8
  br label %if.end11

if.end11:                                         ; preds = %if.end, %land.lhs.true5, %land.lhs.true, %entry
  ret void
}

; Function Attrs: nounwind sspstrong uwtable
define internal void @trace_vfio_save_iterate(ptr noundef %name, i64 noundef %precopy_init_size, i64 noundef %precopy_dirty_size) #0 {
entry:
  %name.addr = alloca ptr, align 8
  %precopy_init_size.addr = alloca i64, align 8
  %precopy_dirty_size.addr = alloca i64, align 8
  store ptr %name, ptr %name.addr, align 8
  store i64 %precopy_init_size, ptr %precopy_init_size.addr, align 8
  store i64 %precopy_dirty_size, ptr %precopy_dirty_size.addr, align 8
  %0 = load ptr, ptr %name.addr, align 8
  %1 = load i64, ptr %precopy_init_size.addr, align 8
  %2 = load i64, ptr %precopy_dirty_size.addr, align 8
  call void @_nocheck__trace_vfio_save_iterate(ptr noundef %0, i64 noundef %1, i64 noundef %2)
  ret void
}

; Function Attrs: nounwind sspstrong uwtable
define internal void @vfio_update_estimated_pending_data(ptr noundef %migration, i64 noundef %data_size) #0 {
entry:
  %migration.addr = alloca ptr, align 8
  %data_size.addr = alloca i64, align 8
  %init_size = alloca i64, align 8
  %_a20 = alloca i64, align 8
  %_b21 = alloca i64, align 8
  %tmp = alloca i64, align 8
  %_a22 = alloca i64, align 8
  %_b23 = alloca i64, align 8
  %tmp9 = alloca i64, align 8
  store ptr %migration, ptr %migration.addr, align 8
  store i64 %data_size, ptr %data_size.addr, align 8
  %0 = load i64, ptr %data_size.addr, align 8
  %tobool = icmp ne i64 %0, 0
  br i1 %tobool, label %if.end, label %if.then

if.then:                                          ; preds = %entry
  %1 = load ptr, ptr %migration.addr, align 8
  %precopy_init_size = getelementptr inbounds %struct.VFIOMigration, ptr %1, i32 0, i32 8
  store i64 0, ptr %precopy_init_size, align 8
  %2 = load ptr, ptr %migration.addr, align 8
  %precopy_dirty_size = getelementptr inbounds %struct.VFIOMigration, ptr %2, i32 0, i32 9
  store i64 0, ptr %precopy_dirty_size, align 8
  br label %return

if.end:                                           ; preds = %entry
  %3 = load ptr, ptr %migration.addr, align 8
  %precopy_init_size1 = getelementptr inbounds %struct.VFIOMigration, ptr %3, i32 0, i32 8
  %4 = load i64, ptr %precopy_init_size1, align 8
  %tobool2 = icmp ne i64 %4, 0
  br i1 %tobool2, label %if.then3, label %if.end7

if.then3:                                         ; preds = %if.end
  %5 = load ptr, ptr %migration.addr, align 8
  %precopy_init_size4 = getelementptr inbounds %struct.VFIOMigration, ptr %5, i32 0, i32 8
  %6 = load i64, ptr %precopy_init_size4, align 8
  store i64 %6, ptr %_a20, align 8
  %7 = load i64, ptr %data_size.addr, align 8
  store i64 %7, ptr %_b21, align 8
  %8 = load i64, ptr %_a20, align 8
  %9 = load i64, ptr %_b21, align 8
  %cmp = icmp ult i64 %8, %9
  br i1 %cmp, label %cond.true, label %cond.false

cond.true:                                        ; preds = %if.then3
  %10 = load i64, ptr %_a20, align 8
  br label %cond.end

cond.false:                                       ; preds = %if.then3
  %11 = load i64, ptr %_b21, align 8
  br label %cond.end

cond.end:                                         ; preds = %cond.false, %cond.true
  %cond = phi i64 [ %10, %cond.true ], [ %11, %cond.false ]
  store i64 %cond, ptr %tmp, align 8
  %12 = load i64, ptr %tmp, align 8
  store i64 %12, ptr %init_size, align 8
  %13 = load i64, ptr %init_size, align 8
  %14 = load ptr, ptr %migration.addr, align 8
  %precopy_init_size5 = getelementptr inbounds %struct.VFIOMigration, ptr %14, i32 0, i32 8
  %15 = load i64, ptr %precopy_init_size5, align 8
  %sub = sub i64 %15, %13
  store i64 %sub, ptr %precopy_init_size5, align 8
  %16 = load i64, ptr %init_size, align 8
  %17 = load i64, ptr %data_size.addr, align 8
  %sub6 = sub i64 %17, %16
  store i64 %sub6, ptr %data_size.addr, align 8
  br label %if.end7

if.end7:                                          ; preds = %cond.end, %if.end
  %18 = load ptr, ptr %migration.addr, align 8
  %precopy_dirty_size8 = getelementptr inbounds %struct.VFIOMigration, ptr %18, i32 0, i32 9
  %19 = load i64, ptr %precopy_dirty_size8, align 8
  store i64 %19, ptr %_a22, align 8
  %20 = load i64, ptr %data_size.addr, align 8
  store i64 %20, ptr %_b23, align 8
  %21 = load i64, ptr %_a22, align 8
  %22 = load i64, ptr %_b23, align 8
  %cmp10 = icmp ult i64 %21, %22
  br i1 %cmp10, label %cond.true11, label %cond.false12

cond.true11:                                      ; preds = %if.end7
  %23 = load i64, ptr %_a22, align 8
  br label %cond.end13

cond.false12:                                     ; preds = %if.end7
  %24 = load i64, ptr %_b23, align 8
  br label %cond.end13

cond.end13:                                       ; preds = %cond.false12, %cond.true11
  %cond14 = phi i64 [ %23, %cond.true11 ], [ %24, %cond.false12 ]
  store i64 %cond14, ptr %tmp9, align 8
  %25 = load i64, ptr %tmp9, align 8
  %26 = load ptr, ptr %migration.addr, align 8
  %precopy_dirty_size15 = getelementptr inbounds %struct.VFIOMigration, ptr %26, i32 0, i32 9
  %27 = load i64, ptr %precopy_dirty_size15, align 8
  %sub16 = sub i64 %27, %25
  store i64 %sub16, ptr %precopy_dirty_size15, align 8
  br label %return

return:                                           ; preds = %cond.end13, %if.then
  ret void
}

; Function Attrs: nounwind sspstrong uwtable
define internal i32 @vfio_save_iterate(ptr noundef %f, ptr noundef %opaque) #0 {
entry:
  %retval = alloca i32, align 4
  %f.addr = alloca ptr, align 8
  %opaque.addr = alloca ptr, align 8
  %vbasedev = alloca ptr, align 8
  %migration = alloca ptr, align 8
  %data_size = alloca i64, align 8
  store ptr %f, ptr %f.addr, align 8
  store ptr %opaque, ptr %opaque.addr, align 8
  %0 = load ptr, ptr %opaque.addr, align 8
  store ptr %0, ptr %vbasedev, align 8
  %1 = load ptr, ptr %vbasedev, align 8
  %migration1 = getelementptr inbounds %struct.VFIODevice, ptr %1, i32 0, i32 19
  %2 = load ptr, ptr %migration1, align 8
  store ptr %2, ptr %migration, align 8
  %3 = load ptr, ptr %f.addr, align 8
  %4 = load ptr, ptr %migration, align 8
  %call = call i64 @vfio_save_block(ptr noundef %3, ptr noundef %4)
  store i64 %call, ptr %data_size, align 8
  %5 = load i64, ptr %data_size, align 8
  %cmp = icmp slt i64 %5, 0
  br i1 %cmp, label %if.then, label %if.end

if.then:                                          ; preds = %entry
  %6 = load i64, ptr %data_size, align 8
  %conv = trunc i64 %6 to i32
  store i32 %conv, ptr %retval, align 4
  br label %return

if.end:                                           ; preds = %entry
  %7 = load ptr, ptr %migration, align 8
  %8 = load i64, ptr %data_size, align 8
  call void @vfio_update_estimated_pending_data(ptr noundef %7, i64 noundef %8)
  %call2 = call zeroext i1 @migrate_switchover_ack()
  br i1 %call2, label %land.lhs.true, label %if.else

land.lhs.true:                                    ; preds = %if.end
  %9 = load ptr, ptr %migration, align 8
  %precopy_init_size = getelementptr inbounds %struct.VFIOMigration, ptr %9, i32 0, i32 8
  %10 = load i64, ptr %precopy_init_size, align 8
  %tobool = icmp ne i64 %10, 0
  br i1 %tobool, label %if.else, label %land.lhs.true4

land.lhs.true4:                                   ; preds = %land.lhs.true
  %11 = load ptr, ptr %migration, align 8
  %initial_data_sent = getelementptr inbounds %struct.VFIOMigration, ptr %11, i32 0, i32 10
  %12 = load i8, ptr %initial_data_sent, align 8
  %tobool5 = trunc i8 %12 to i1
  br i1 %tobool5, label %if.else, label %if.then6

if.then6:                                         ; preds = %land.lhs.true4
  %13 = load ptr, ptr %f.addr, align 8
  call void @qemu_put_be64(ptr noundef %13, i64 noundef -284164091)
  %14 = load ptr, ptr %migration, align 8
  %initial_data_sent7 = getelementptr inbounds %struct.VFIOMigration, ptr %14, i32 0, i32 10
  store i8 1, ptr %initial_data_sent7, align 8
  br label %if.end8

if.else:                                          ; preds = %land.lhs.true4, %land.lhs.true, %if.end
  %15 = load ptr, ptr %f.addr, align 8
  call void @qemu_put_be64(ptr noundef %15, i64 noundef -284164095)
  br label %if.end8

if.end8:                                          ; preds = %if.else, %if.then6
  %16 = load ptr, ptr %vbasedev, align 8
  %name = getelementptr inbounds %struct.VFIODevice, ptr %16, i32 0, i32 6
  %17 = load ptr, ptr %name, align 8
  %18 = load ptr, ptr %migration, align 8
  %precopy_init_size9 = getelementptr inbounds %struct.VFIOMigration, ptr %18, i32 0, i32 8
  %19 = load i64, ptr %precopy_init_size9, align 8
  %20 = load ptr, ptr %migration, align 8
  %precopy_dirty_size = getelementptr inbounds %struct.VFIOMigration, ptr %20, i32 0, i32 9
  %21 = load i64, ptr %precopy_dirty_size, align 8
  call void @trace_vfio_save_iterate(ptr noundef %17, i64 noundef %19, i64 noundef %21)
  store i32 1, ptr %retval, align 4
  br label %return

return:                                           ; preds = %if.end8, %if.then
  %22 = load i32, ptr %retval, align 4
  ret i32 %22
}