; Function Attrs: nounwind sspstrong uwtable
define internal range(i32 -2147483648, 2) i32 @vfio_save_iterate(ptr noundef %f, ptr noundef readonly captures(none) %opaque) #2 {
entry:
  %_now.i.i = alloca %struct.timeval, align 8
  %migration1 = getelementptr inbounds nuw i8, ptr %opaque, i64 128
  %0 = load ptr, ptr %migration1, align 8
  %call = tail call fastcc i64 @vfio_save_block(ptr noundef %f, ptr noundef %0)
  %cmp = icmp slt i64 %call, 0
  br i1 %cmp, label %if.then, label %if.end

if.then:                                          ; preds = %entry
  %conv = trunc nsw i64 %call to i32
  br label %return

if.end:                                           ; preds = %entry
  %tobool.not.i = icmp eq i64 %call, 0
  %precopy_init_size.i = getelementptr inbounds nuw i8, ptr %0, i64 72
  br i1 %tobool.not.i, label %if.then.i, label %if.end.i

if.then.i:                                        ; preds = %if.end
  tail call void @llvm.memset.p0.i64(ptr noundef nonnull align 8 dereferenceable(16) %precopy_init_size.i, i8 0, i64 16, i1 false)
  br label %vfio_update_estimated_pending_data.exit

if.end.i:                                         ; preds = %if.end
  %1 = load i64, ptr %precopy_init_size.i, align 8
  %tobool2.not.i = icmp eq i64 %1, 0
  br i1 %tobool2.not.i, label %if.end7.i, label %if.then3.i

if.then3.i:                                       ; preds = %if.end.i
  %cond.i = tail call i64 @llvm.umin.i64(i64 %1, i64 range(i64 0, -9223372036854775808) %call)
  %sub.i = sub i64 %1, %cond.i
  store i64 %sub.i, ptr %precopy_init_size.i, align 8
  %sub6.i = sub nsw i64 %call, %cond.i
  br label %if.end7.i

if.end7.i:                                        ; preds = %if.then3.i, %if.end.i
  %data_size.addr.0.i = phi i64 [ %sub6.i, %if.then3.i ], [ %call, %if.end.i ]
  %precopy_dirty_size8.i = getelementptr inbounds nuw i8, ptr %0, i64 80
  %2 = load i64, ptr %precopy_dirty_size8.i, align 8
  %sub16.i = tail call i64 @llvm.usub.sat.i64(i64 %2, i64 %data_size.addr.0.i)
  store i64 %sub16.i, ptr %precopy_dirty_size8.i, align 8
  br label %vfio_update_estimated_pending_data.exit

vfio_update_estimated_pending_data.exit:          ; preds = %if.then.i, %if.end7.i
  %call2 = tail call zeroext i1 @migrate_switchover_ack() #16
  br i1 %call2, label %land.lhs.true, label %if.else

land.lhs.true:                                    ; preds = %vfio_update_estimated_pending_data.exit
  %3 = load i64, ptr %precopy_init_size.i, align 8
  %tobool.not = icmp eq i64 %3, 0
  br i1 %tobool.not, label %land.lhs.true4, label %if.else

land.lhs.true4:                                   ; preds = %land.lhs.true
  %initial_data_sent = getelementptr inbounds nuw i8, ptr %0, i64 88
  %4 = load i8, ptr %initial_data_sent, align 8
  %tobool5 = trunc i8 %4 to i1
  br i1 %tobool5, label %if.else, label %if.then6

if.then6:                                         ; preds = %land.lhs.true4
  tail call void @qemu_put_be64(ptr noundef %f, i64 noundef -284164091) #16
  store i8 1, ptr %initial_data_sent, align 8
  br label %if.end8

if.else:                                          ; preds = %land.lhs.true4, %land.lhs.true, %vfio_update_estimated_pending_data.exit
  tail call void @qemu_put_be64(ptr noundef %f, i64 noundef -284164095) #16
  br label %if.end8

if.end8:                                          ; preds = %if.else, %if.then6
  %name = getelementptr inbounds nuw i8, ptr %opaque, i64 72
  %5 = load ptr, ptr %name, align 8
  %6 = load i64, ptr %precopy_init_size.i, align 8
  %precopy_dirty_size = getelementptr inbounds nuw i8, ptr %0, i64 80
  %7 = load i64, ptr %precopy_dirty_size, align 8
  call void @llvm.lifetime.start.p0(i64 16, ptr nonnull %_now.i.i)
  %8 = load i32, ptr @trace_events_enabled_count, align 4
  %tobool.i.i = icmp ne i32 %8, 0
  %9 = load i16, ptr @_TRACE_VFIO_SAVE_ITERATE_DSTATE, align 2
  %tobool4.i.i = icmp ne i16 %9, 0
  %or.cond.i.i = select i1 %tobool.i.i, i1 %tobool4.i.i, i1 false
  br i1 %or.cond.i.i, label %land.lhs.true5.i.i, label %trace_vfio_save_iterate.exit

land.lhs.true5.i.i:                               ; preds = %if.end8
  %10 = load i32, ptr @qemu_loglevel, align 4
  %and.i.i.i = and i32 %10, 32768
  %cmp.i.not.i.i = icmp eq i32 %and.i.i.i, 0
  br i1 %cmp.i.not.i.i, label %trace_vfio_save_iterate.exit, label %if.then.i.i

if.then.i.i:                                      ; preds = %land.lhs.true5.i.i
  %11 = load i8, ptr @message_with_timestamp, align 1
  %tobool7.i.i = trunc i8 %11 to i1
  br i1 %tobool7.i.i, label %if.then8.i.i, label %if.else.i.i

if.then8.i.i:                                     ; preds = %if.then.i.i
  %call9.i.i = call i32 @gettimeofday(ptr noundef nonnull %_now.i.i, ptr noundef null) #16
  %call10.i.i = tail call i32 @qemu_get_thread_id() #16
  %12 = load i64, ptr %_now.i.i, align 8
  %tv_usec.i.i = getelementptr inbounds nuw i8, ptr %_now.i.i, i64 8
  %13 = load i64, ptr %tv_usec.i.i, align 8
  tail call void (ptr, ...) @qemu_log(ptr noundef nonnull @.str.42, i32 noundef %call10.i.i, i64 noundef %12, i64 noundef %13, ptr noundef %5, i64 noundef %6, i64 noundef %7) #16
  br label %trace_vfio_save_iterate.exit

if.else.i.i:                                      ; preds = %if.then.i.i
  tail call void (ptr, ...) @qemu_log(ptr noundef nonnull @.str.43, ptr noundef %5, i64 noundef %6, i64 noundef %7) #16
  br label %trace_vfio_save_iterate.exit

trace_vfio_save_iterate.exit:                     ; preds = %if.end8, %land.lhs.true5.i.i, %if.then8.i.i, %if.else.i.i
  call void @llvm.lifetime.end.p0(i64 16, ptr nonnull %_now.i.i)
  br label %return

return:                                           ; preds = %trace_vfio_save_iterate.exit, %if.then
  %retval.0 = phi i32 [ %conv, %if.then ], [ 1, %trace_vfio_save_iterate.exit ]
  ret i32 %retval.0
}